LIBRARY   PIOP
EXPORTS
	??6OutboundPacketStream@osc@@QAEAAV01@J@Z @1
	?GetHostByName@IpEndpointName@@CAKPBD@Z @2
	??1UdpSocket@@UAE@XZ @3
	?Connect@UdpSocket@@QAEXABVIpEndpointName@@@Z @4
	??0UdpSocket@@QAE@XZ @5
	??1OutboundPacketStream@osc@@QAE@XZ @6
	?Send@UdpSocket@@QAEXPBDI@Z @7
	?Data@OutboundPacketStream@osc@@QBEPBDXZ @8
	?Size@OutboundPacketStream@osc@@QBEIXZ @9
	??6OutboundPacketStream@osc@@QAEAAV01@ABUBundleTerminator@1@@Z @10
	??6OutboundPacketStream@osc@@QAEAAV01@ABUBundleInitiator@1@@Z @11
	?EndBundle@osc@@3UBundleTerminator@1@A @12
	??6OutboundPacketStream@osc@@QAEAAV01@ABUMessageTerminator@1@@Z @13
	??6OutboundPacketStream@osc@@QAEAAV01@ABUBeginMessage@1@@Z @14
	?BeginBundleImmediate@osc@@3UBundleInitiator@1@A @15
	??0OutboundPacketStream@osc@@QAE@PADI@Z @16
	?EndMessage@osc@@3UMessageTerminator@1@A @17
	??6OutboundPacketStream@osc@@QAEAAV01@ABUBlob@1@@Z @18
	??6OutboundPacketStream@osc@@QAEAAV01@M@Z @19
	?IsBundle@ReceivedPacket@osc@@QBE_NXZ @20
	?AsInt32@ReceivedMessageArgument@osc@@QBEJXZ @21
	?Advance@ReceivedMessageArgumentIterator@osc@@AAEXXZ @22
	??0ReceivedMessage@osc@@QAE@ABVReceivedPacket@1@@Z @23
	??0ReceivedMessage@osc@@QAE@ABVReceivedBundleElement@1@@Z @24
	??0SocketReceiveMultiplexer@@QAE@XZ @25
	?AttachSocketListener@SocketReceiveMultiplexer@@QAEXPAVUdpSocket@@PAVPacketListener@@@Z @26
	?Run@SocketReceiveMultiplexer@@QAEXXZ @27
	?AsynchronousBreak@SocketReceiveMultiplexer@@QAEXXZ @28
	?AsFloat@ReceivedMessageArgument@osc@@QBEMXZ @29
	?IsBundle@ReceivedBundleElement@osc@@QBE_NXZ @30
	?Size@ReceivedBundleElement@osc@@QBEJXZ @31
	??0ReceivedBundle@osc@@QAE@ABVReceivedPacket@1@@Z @32
	??1SocketReceiveMultiplexer@@QAE@XZ @33
	?DetachSocketListener@SocketReceiveMultiplexer@@QAEXPAVUdpSocket@@PAVPacketListener@@@Z @34
    ??0ReceivedBundle@osc@@QAE@ABVReceivedBundleElement@1@@Z @35
	?Bind@UdpSocket@@QAEXABVIpEndpointName@@@Z @36
